ARM GAS  C:\Users\Austina\AppData\Local\Temp\cclYMHAw.s 			page 1


   1              		.syntax unified
   2              		.cpu cortex-m0
   3              		.fpu softvfp
   4              		.eabi_attribute 20, 1
   5              		.eabi_attribute 21, 1
   6              		.eabi_attribute 23, 3
   7              		.eabi_attribute 24, 1
   8              		.eabi_attribute 25, 1
   9              		.eabi_attribute 26, 1
  10              		.eabi_attribute 30, 1
  11              		.eabi_attribute 34, 0
  12              		.eabi_attribute 18, 4
  13              		.thumb
  14              		.syntax unified
  15              		.file	"main.c"
  16              		.text
  17              	.Ltext0:
  18              		.cfi_sections	.debug_frame
  19              		.section	.text.StackEventHandler,"ax",%progbits
  20              		.align	2
  21              		.global	StackEventHandler
  22              		.code	16
  23              		.thumb_func
  24              		.type	StackEventHandler, %function
  25              	StackEventHandler:
  26              	.LFB35:
  27              		.file 1 "main.c"
   1:main.c        **** /* ========================================
   2:main.c        ****  *
   3:main.c        ****  * Copyright YOUR COMPANY, THE YEAR
   4:main.c        ****  * All Rights Reserved
   5:main.c        ****  * UNPUBLISHED, LICENSED SOFTWARE.
   6:main.c        ****  *
   7:main.c        ****  * CONFIDENTIAL AND PROPRIETARY INFORMATION
   8:main.c        ****  * WHICH IS THE PROPERTY OF your company.
   9:main.c        ****  *
  10:main.c        ****  * ========================================
  11:main.c        **** */
  12:main.c        **** /*******************************************************************************
  13:main.c        **** * Included headers
  14:main.c        **** *******************************************************************************/
  15:main.c        **** #include <project.h>
  16:main.c        **** #include <stdbool.h>
  17:main.c        **** 
  18:main.c        **** #define serialDebug  UART_UartPutString
  19:main.c        **** //#define serialDebug  
  20:main.c        **** #define serialMain  UART_UartPutString
  21:main.c        **** 
  22:main.c        ****     #define DSLEEP_LED_GREEN_OFF()  LED_DSLEEP_GREEN_Write(1)
  23:main.c        ****     #define SLEEP_LED_BLUE_OFF()    LED_SLEEP_BLUE_Write(1)
  24:main.c        ****     #define DSLEEP_LED_GREEN_ON()   LED_DSLEEP_GREEN_Write(0)
  25:main.c        ****     #define SLEEP_LED_BLUE_ON()     LED_SLEEP_BLUE_Write(0)
  26:main.c        **** 
  27:main.c        **** /*******************************************************************************
  28:main.c        **** * Variables
  29:main.c        **** *******************************************************************************/
  30:main.c        **** bool charNotificationEnabled = false;
ARM GAS  C:\Users\Austina\AppData\Local\Temp\cclYMHAw.s 			page 2


  31:main.c        **** uint8_t data;
  32:main.c        **** bool Timerflag = false;
  33:main.c        **** /*******************************************************************************
  34:main.c        **** * Function Definitions
  35:main.c        **** *******************************************************************************/
  36:main.c        **** 
  37:main.c        **** 
  38:main.c        **** /*******************************************************************************
  39:main.c        **** * Function Name: StackEventHandler()
  40:main.c        **** ********************************************************************************
  41:main.c        **** * Summary:
  42:main.c        **** * Event handler function for the BLE events processing.
  43:main.c        **** *
  44:main.c        **** * Parameters:
  45:main.c        **** * uint32 eventCode: The event to be processed
  46:main.c        **** * void * eventParam: Pointer to hold the additional information associated 
  47:main.c        **** *                    with an event
  48:main.c        **** *
  49:main.c        **** * Return:
  50:main.c        **** * None
  51:main.c        **** *
  52:main.c        **** * Theory:
  53:main.c        **** * The function is responsible for handling the events generated by the stack.
  54:main.c        **** * In addition to handling general events for BLE advertisement, connection, 
  55:main.c        **** * and disconnection, this function updates the negotiated MTU size on the 
  56:main.c        **** * MTU Exchange Request, and also enables/disables notifications for the custom
  57:main.c        **** * characteristic.
  58:main.c        **** *
  59:main.c        **** * Side Effects:
  60:main.c        **** * None
  61:main.c        **** *
  62:main.c        **** *******************************************************************************/
  63:main.c        **** void StackEventHandler(uint32 eventCode, void * eventParam)
  64:main.c        **** {
  28              		.loc 1 64 0
  29              		.cfi_startproc
  30              		@ args = 0, pretend = 0, frame = 16
  31              		@ frame_needed = 0, uses_anonymous_args = 0
  32              	.LVL0:
  33 0000 30B5     		push	{r4, r5, lr}
  34              		.cfi_def_cfa_offset 12
  35              		.cfi_offset 4, -12
  36              		.cfi_offset 5, -8
  37              		.cfi_offset 14, -4
  38 0002 85B0     		sub	sp, sp, #20
  39              		.cfi_def_cfa_offset 32
  40 0004 0C00     		movs	r4, r1
  65:main.c        ****     CYBLE_GATTS_WRITE_REQ_PARAM_T writeParam;
  66:main.c        ****    
  67:main.c        ****     
  68:main.c        ****     switch(eventCode)
  41              		.loc 1 68 0
  42 0006 2728     		cmp	r0, #39
  43 0008 3FD0     		beq	.L3
  44 000a 15D8     		bhi	.L4
  45 000c 2228     		cmp	r0, #34
  46 000e 77D0     		beq	.L5
ARM GAS  C:\Users\Austina\AppData\Local\Temp\cclYMHAw.s 			page 3


  47 0010 0AD8     		bhi	.L6
  48 0012 0328     		cmp	r0, #3
  49 0014 68D0     		beq	.L7
  50 0016 02D8     		bhi	.L8
  51 0018 0128     		cmp	r0, #1
  52 001a 24D0     		beq	.L9
  53 001c 9BE0     		b	.L1
  54              	.L8:
  55 001e 0428     		cmp	r0, #4
  56 0020 66D0     		beq	.L10
  57 0022 2128     		cmp	r0, #33
  58 0024 68D0     		beq	.L11
  59 0026 96E0     		b	.L1
  60              	.L6:
  61 0028 2428     		cmp	r0, #36
  62 002a 71D0     		beq	.L12
  63 002c 6CD3     		bcc	.L13
  64 002e 2528     		cmp	r0, #37
  65 0030 72D0     		beq	.L14
  66 0032 2628     		cmp	r0, #38
  67 0034 1ED0     		beq	.L15
  68 0036 8EE0     		b	.L1
  69              	.L4:
  70 0038 4228     		cmp	r0, #66
  71 003a 00D1     		bne	.LCB53
  72 003c 7CE0     		b	.L16	@long jump
  73              	.LCB53:
  74 003e 07D8     		bhi	.L17
  75 0040 2928     		cmp	r0, #41
  76 0042 6DD0     		beq	.L18
  77 0044 25D3     		bcc	.L19
  78 0046 2A28     		cmp	r0, #42
  79 0048 6ED0     		beq	.L20
  80 004a 4128     		cmp	r0, #65
  81 004c 70D0     		beq	.L21
  82 004e 82E0     		b	.L1
  83              	.L17:
  84 0050 4C28     		cmp	r0, #76
  85 0052 28D0     		beq	.L22
  86 0054 02D8     		bhi	.L23
  87 0056 4328     		cmp	r0, #67
  88 0058 72D0     		beq	.L24
  89 005a 7CE0     		b	.L1
  90              	.L23:
  91 005c 5728     		cmp	r0, #87
  92 005e 73D0     		beq	.L25
  93 0060 FA28     		cmp	r0, #250
  94 0062 75D0     		beq	.L26
  95 0064 77E0     		b	.L1
  96              	.L9:
  69:main.c        ****     {
  70:main.c        ****         /* Stack initialized; ready for advertisement */
  71:main.c        ****         case CYBLE_EVT_STACK_ON:
  72:main.c        ****             UART_UartPutString("15 \r\n");
  97              		.loc 1 72 0
  98 0066 3D48     		ldr	r0, .L28
  99              	.LVL1:
ARM GAS  C:\Users\Austina\AppData\Local\Temp\cclYMHAw.s 			page 4


 100 0068 FFF7FEFF 		bl	UART_UartPutString
 101              	.LVL2:
  73:main.c        ****             CyBle_GappStartAdvertisement(CYBLE_ADVERTISING_FAST);
 102              		.loc 1 73 0
 103 006c 0020     		movs	r0, #0
 104 006e FFF7FEFF 		bl	CyBle_GappStartAdvertisement
 105              	.LVL3:
  74:main.c        ****             break;
 106              		.loc 1 74 0
 107 0072 70E0     		b	.L1
 108              	.LVL4:
 109              	.L15:
  75:main.c        ****         
  76:main.c        ****         /* Advertisement timed out; Restart advertisement */
  77:main.c        ****         case CYBLE_EVT_GAPP_ADVERTISEMENT_START_STOP:
  78:main.c        ****             if(CyBle_GetState() == CYBLE_STATE_DISCONNECTED)
 110              		.loc 1 78 0
 111 0074 3A4B     		ldr	r3, .L28+4
 112 0076 1B78     		ldrb	r3, [r3]
 113 0078 042B     		cmp	r3, #4
 114 007a 6CD1     		bne	.L1
  79:main.c        ****             {
  80:main.c        ****                 CyBle_GappStartAdvertisement(CYBLE_ADVERTISING_FAST);
 115              		.loc 1 80 0
 116 007c 0020     		movs	r0, #0
 117              	.LVL5:
 118 007e FFF7FEFF 		bl	CyBle_GappStartAdvertisement
 119              	.LVL6:
  81:main.c        ****                  //UART_UartPutString("\n\rAdvertising stopped restarted again. ");
  82:main.c        ****             UART_UartPutString("16 \r\n");
 120              		.loc 1 82 0
 121 0082 3848     		ldr	r0, .L28+8
 122 0084 FFF7FEFF 		bl	UART_UartPutString
 123              	.LVL7:
 124 0088 65E0     		b	.L1
 125              	.LVL8:
 126              	.L3:
  83:main.c        ****             }
  84:main.c        ****             break;
  85:main.c        **** 
  86:main.c        ****         case CYBLE_EVT_GAP_DEVICE_CONNECTED:
  87:main.c        ****              //UART_UartPutString("\n\rConnected. ");
  88:main.c        ****             UART_UartPutString("17 \r\n");
 127              		.loc 1 88 0
 128 008a 3748     		ldr	r0, .L28+12
 129              	.LVL9:
 130 008c FFF7FEFF 		bl	UART_UartPutString
 131              	.LVL10:
  89:main.c        ****             break;
 132              		.loc 1 89 0
 133 0090 61E0     		b	.L1
 134              	.LVL11:
 135              	.L19:
  90:main.c        ****             
  91:main.c        ****         /* Device disconnected; restart advertisement */
  92:main.c        ****         case CYBLE_EVT_GAP_DEVICE_DISCONNECTED:
  93:main.c        ****             charNotificationEnabled = false;
ARM GAS  C:\Users\Austina\AppData\Local\Temp\cclYMHAw.s 			page 5


 136              		.loc 1 93 0
 137 0092 0022     		movs	r2, #0
 138 0094 354B     		ldr	r3, .L28+16
 139 0096 1A70     		strb	r2, [r3]
  94:main.c        ****             //UART_UartPutString("\n\n\rDisconnected. ");
  95:main.c        ****             //UART_UartPutString("\n\rAdvertising again. ");
  96:main.c        ****             UART_UartPutString("18 \r\n");
 140              		.loc 1 96 0
 141 0098 3548     		ldr	r0, .L28+20
 142              	.LVL12:
 143 009a FFF7FEFF 		bl	UART_UartPutString
 144              	.LVL13:
  97:main.c        ****             CyBle_GappStartAdvertisement(CYBLE_ADVERTISING_FAST);
 145              		.loc 1 97 0
 146 009e 0020     		movs	r0, #0
 147 00a0 FFF7FEFF 		bl	CyBle_GappStartAdvertisement
 148              	.LVL14:
  98:main.c        ****             break;
 149              		.loc 1 98 0
 150 00a4 57E0     		b	.L1
 151              	.LVL15:
 152              	.L22:
  99:main.c        **** 
 100:main.c        ****         
 101:main.c        ****             
 102:main.c        ****         /* Check if the Client Characteristic Configuration Descriptor is
 103:main.c        ****          * written to. Notification is enabled or disabled accordingly.
 104:main.c        ****          */
 105:main.c        ****         case CYBLE_EVT_GATTS_WRITE_REQ:
 106:main.c        ****             UART_UartPutString("19 \r\n");
 153              		.loc 1 106 0
 154 00a6 3348     		ldr	r0, .L28+24
 155              	.LVL16:
 156 00a8 FFF7FEFF 		bl	UART_UartPutString
 157              	.LVL17:
 107:main.c        ****             writeParam = *(CYBLE_GATTS_WRITE_REQ_PARAM_T *)eventParam;
 158              		.loc 1 107 0
 159 00ac 6D46     		mov	r5, sp
 160 00ae 6B46     		mov	r3, sp
 161 00b0 2200     		movs	r2, r4
 162 00b2 13CA     		ldmia	r2!, {r0, r1, r4}
 163 00b4 13C3     		stmia	r3!, {r0, r1, r4}
 164              	.LVL18:
 165 00b6 1268     		ldr	r2, [r2]
 166              	.LVL19:
 167 00b8 1A60     		str	r2, [r3]
 108:main.c        ****             CyBle_GattsWriteAttributeValue(&writeParam.handleValPair, 0u,&writeParam.connHandle, CY
 168              		.loc 1 108 0
 169 00ba 4023     		movs	r3, #64
 170 00bc 6A46     		mov	r2, sp
 171 00be 0021     		movs	r1, #0
 172 00c0 01A8     		add	r0, sp, #4
 173 00c2 FFF7FEFF 		bl	CyBle_GattsWriteAttributeValue
 174              	.LVL20:
 109:main.c        ****             if(writeParam.handleValPair.attrHandle == 
 175              		.loc 1 109 0
 176 00c6 AB89     		ldrh	r3, [r5, #12]
ARM GAS  C:\Users\Austina\AppData\Local\Temp\cclYMHAw.s 			page 6


 177 00c8 132B     		cmp	r3, #19
 178 00ca 05D1     		bne	.L27
 110:main.c        ****                CYBLE_WIRELESS_RADAR_SENSOR_CUSTOM_CHARACTERISTIC_CLIENT_CHARACTERISTIC_CONFIGURATIO
 111:main.c        ****             {
 112:main.c        ****                 charNotificationEnabled = writeParam.handleValPair.value.val[0];
 179              		.loc 1 112 0
 180 00cc 019B     		ldr	r3, [sp, #4]
 181 00ce 1B78     		ldrb	r3, [r3]
 182 00d0 5A1E     		subs	r2, r3, #1
 183 00d2 9341     		sbcs	r3, r3, r2
 184 00d4 254A     		ldr	r2, .L28+16
 185 00d6 1370     		strb	r3, [r2]
 186              	.L27:
 113:main.c        ****             }
 114:main.c        ****             CyBle_GattsWriteRsp(cyBle_connHandle);
 187              		.loc 1 114 0
 188 00d8 274A     		ldr	r2, .L28+28
 189 00da 1378     		ldrb	r3, [r2]
 190 00dc 5078     		ldrb	r0, [r2, #1]
 191 00de 0002     		lsls	r0, r0, #8
 192 00e0 1843     		orrs	r0, r3
 193 00e2 FFF7FEFF 		bl	CyBle_GattsWriteRsp
 194              	.LVL21:
 115:main.c        ****             break;
 195              		.loc 1 115 0
 196 00e6 36E0     		b	.L1
 197              	.LVL22:
 198              	.L7:
 116:main.c        ****             
 117:main.c        **** 
 118:main.c        ****         /* Other events that are generated by the BLE Component that
 119:main.c        ****          * are not required for functioning of this design */
 120:main.c        ****         /**********************************************************
 121:main.c        ****         *                       General Events
 122:main.c        ****         ***********************************************************/
 123:main.c        ****         case CYBLE_EVT_HARDWARE_ERROR:    /* This event indicates that some internal HW error has o
 124:main.c        ****             serialDebug("1 \r\n");
 199              		.loc 1 124 0
 200 00e8 2448     		ldr	r0, .L28+32
 201              	.LVL23:
 202 00ea FFF7FEFF 		bl	UART_UartPutString
 203              	.LVL24:
 125:main.c        ****             break;
 204              		.loc 1 125 0
 205 00ee 32E0     		b	.L1
 206              	.LVL25:
 207              	.L10:
 126:main.c        **** 
 127:main.c        ****         case CYBLE_EVT_HCI_STATUS:
 128:main.c        ****             serialDebug("2 \r\n");
 208              		.loc 1 128 0
 209 00f0 2348     		ldr	r0, .L28+36
 210              	.LVL26:
 211 00f2 FFF7FEFF 		bl	UART_UartPutString
 212              	.LVL27:
 129:main.c        ****             break;
 213              		.loc 1 129 0
ARM GAS  C:\Users\Austina\AppData\Local\Temp\cclYMHAw.s 			page 7


 214 00f6 2EE0     		b	.L1
 215              	.LVL28:
 216              	.L11:
 130:main.c        **** 
 131:main.c        ****         /**********************************************************
 132:main.c        ****         *                       GAP Events
 133:main.c        ****         ***********************************************************/
 134:main.c        ****         case CYBLE_EVT_GAP_AUTH_REQ:
 135:main.c        ****             serialDebug("3 \r\n");
 217              		.loc 1 135 0
 218 00f8 2248     		ldr	r0, .L28+40
 219              	.LVL29:
 220 00fa FFF7FEFF 		bl	UART_UartPutString
 221              	.LVL30:
 136:main.c        ****             break;
 222              		.loc 1 136 0
 223 00fe 2AE0     		b	.L1
 224              	.LVL31:
 225              	.L5:
 137:main.c        **** 
 138:main.c        ****         case CYBLE_EVT_GAP_PASSKEY_ENTRY_REQUEST:
 139:main.c        ****             serialDebug("4 \r\n");
 226              		.loc 1 139 0
 227 0100 2148     		ldr	r0, .L28+44
 228              	.LVL32:
 229 0102 FFF7FEFF 		bl	UART_UartPutString
 230              	.LVL33:
 140:main.c        ****             break;
 231              		.loc 1 140 0
 232 0106 26E0     		b	.L1
 233              	.LVL34:
 234              	.L13:
 141:main.c        **** 
 142:main.c        ****         case CYBLE_EVT_GAP_PASSKEY_DISPLAY_REQUEST:
 143:main.c        ****             serialDebug("5 \r\n");
 235              		.loc 1 143 0
 236 0108 2048     		ldr	r0, .L28+48
 237              	.LVL35:
 238 010a FFF7FEFF 		bl	UART_UartPutString
 239              	.LVL36:
 144:main.c        ****             break;
 240              		.loc 1 144 0
 241 010e 22E0     		b	.L1
 242              	.LVL37:
 243              	.L12:
 145:main.c        **** 
 146:main.c        ****         case CYBLE_EVT_GAP_AUTH_COMPLETE:
 147:main.c        ****             serialDebug("6 \r\n");
 244              		.loc 1 147 0
 245 0110 1F48     		ldr	r0, .L28+52
 246              	.LVL38:
 247 0112 FFF7FEFF 		bl	UART_UartPutString
 248              	.LVL39:
 148:main.c        **** 
 149:main.c        ****             break;
 249              		.loc 1 149 0
 250 0116 1EE0     		b	.L1
ARM GAS  C:\Users\Austina\AppData\Local\Temp\cclYMHAw.s 			page 8


 251              	.LVL40:
 252              	.L14:
 150:main.c        ****         case CYBLE_EVT_GAP_AUTH_FAILED:
 151:main.c        ****             serialDebug("7 \r\n");
 253              		.loc 1 151 0
 254 0118 1E48     		ldr	r0, .L28+56
 255              	.LVL41:
 256 011a FFF7FEFF 		bl	UART_UartPutString
 257              	.LVL42:
 152:main.c        **** 
 153:main.c        ****             break;
 258              		.loc 1 153 0
 259 011e 1AE0     		b	.L1
 260              	.LVL43:
 261              	.L18:
 154:main.c        **** 
 155:main.c        ****         case CYBLE_EVT_GAP_ENCRYPT_CHANGE:
 156:main.c        ****             serialDebug("8 \r\n");
 262              		.loc 1 156 0
 263 0120 1D48     		ldr	r0, .L28+60
 264              	.LVL44:
 265 0122 FFF7FEFF 		bl	UART_UartPutString
 266              	.LVL45:
 157:main.c        ****             break;
 267              		.loc 1 157 0
 268 0126 16E0     		b	.L1
 269              	.LVL46:
 270              	.L20:
 158:main.c        **** 
 159:main.c        ****         case CYBLE_EVT_GAPC_CONNECTION_UPDATE_COMPLETE:
 160:main.c        ****             serialDebug("9 \r\n");
 271              		.loc 1 160 0
 272 0128 1C48     		ldr	r0, .L28+64
 273              	.LVL47:
 274 012a FFF7FEFF 		bl	UART_UartPutString
 275              	.LVL48:
 161:main.c        ****             break;
 276              		.loc 1 161 0
 277 012e 12E0     		b	.L1
 278              	.LVL49:
 279              	.L21:
 162:main.c        **** 
 163:main.c        ****         /**********************************************************
 164:main.c        ****         *                       GATT Events
 165:main.c        ****         ***********************************************************/
 166:main.c        ****         case CYBLE_EVT_GATT_CONNECT_IND:
 167:main.c        ****             serialDebug("10 \r\n");
 280              		.loc 1 167 0
 281 0130 1B48     		ldr	r0, .L28+68
 282              	.LVL50:
 283 0132 FFF7FEFF 		bl	UART_UartPutString
 284              	.LVL51:
 168:main.c        ****             break;
 285              		.loc 1 168 0
 286 0136 0EE0     		b	.L1
 287              	.LVL52:
 288              	.L16:
ARM GAS  C:\Users\Austina\AppData\Local\Temp\cclYMHAw.s 			page 9


 169:main.c        **** 
 170:main.c        ****         case CYBLE_EVT_GATT_DISCONNECT_IND:
 171:main.c        ****             serialDebug("11 \r\n");
 289              		.loc 1 171 0
 290 0138 1A48     		ldr	r0, .L28+72
 291              	.LVL53:
 292 013a FFF7FEFF 		bl	UART_UartPutString
 293              	.LVL54:
 172:main.c        ****             break;
 294              		.loc 1 172 0
 295 013e 0AE0     		b	.L1
 296              	.LVL55:
 297              	.L24:
 173:main.c        **** 
 174:main.c        ****         case CYBLE_EVT_GATTS_XCNHG_MTU_REQ:
 175:main.c        ****             serialDebug("12 \r\n");
 298              		.loc 1 175 0
 299 0140 1948     		ldr	r0, .L28+76
 300              	.LVL56:
 301 0142 FFF7FEFF 		bl	UART_UartPutString
 302              	.LVL57:
 176:main.c        ****             break;
 303              		.loc 1 176 0
 304 0146 06E0     		b	.L1
 305              	.LVL58:
 306              	.L25:
 177:main.c        **** 
 178:main.c        ****         case CYBLE_EVT_GATTS_READ_CHAR_VAL_ACCESS_REQ:
 179:main.c        ****             serialDebug("13 \r\n");
 307              		.loc 1 179 0
 308 0148 1848     		ldr	r0, .L28+80
 309              	.LVL59:
 310 014a FFF7FEFF 		bl	UART_UartPutString
 311              	.LVL60:
 180:main.c        ****             break;
 312              		.loc 1 180 0
 313 014e 02E0     		b	.L1
 314              	.LVL61:
 315              	.L26:
 181:main.c        **** 
 182:main.c        ****         /**********************************************************
 183:main.c        ****         *                       Other Events
 184:main.c        ****         ***********************************************************/
 185:main.c        ****         case CYBLE_EVT_PENDING_FLASH_WRITE:
 186:main.c        ****             serialDebug("14 \r\n");
 316              		.loc 1 186 0
 317 0150 1748     		ldr	r0, .L28+84
 318              	.LVL62:
 319 0152 FFF7FEFF 		bl	UART_UartPutString
 320              	.LVL63:
 321              	.L1:
 187:main.c        ****             break;
 188:main.c        **** 
 189:main.c        ****         default:
 190:main.c        ****             break;
 191:main.c        ****     }
 192:main.c        **** }
ARM GAS  C:\Users\Austina\AppData\Local\Temp\cclYMHAw.s 			page 10


 322              		.loc 1 192 0
 323 0156 05B0     		add	sp, sp, #20
 324              		@ sp needed
 325 0158 30BD     		pop	{r4, r5, pc}
 326              	.L29:
 327 015a C046     		.align	2
 328              	.L28:
 329 015c 00000000 		.word	.LC0
 330 0160 00000000 		.word	cyBle_state
 331 0164 08000000 		.word	.LC3
 332 0168 10000000 		.word	.LC5
 333 016c 00000000 		.word	.LANCHOR0
 334 0170 18000000 		.word	.LC8
 335 0174 20000000 		.word	.LC10
 336 0178 00000000 		.word	cyBle_connHandle
 337 017c 28000000 		.word	.LC13
 338 0180 30000000 		.word	.LC15
 339 0184 38000000 		.word	.LC17
 340 0188 40000000 		.word	.LC19
 341 018c 48000000 		.word	.LC21
 342 0190 50000000 		.word	.LC23
 343 0194 58000000 		.word	.LC25
 344 0198 60000000 		.word	.LC27
 345 019c 68000000 		.word	.LC29
 346 01a0 70000000 		.word	.LC31
 347 01a4 78000000 		.word	.LC33
 348 01a8 80000000 		.word	.LC35
 349 01ac 88000000 		.word	.LC37
 350 01b0 90000000 		.word	.LC39
 351              		.cfi_endproc
 352              	.LFE35:
 353              		.size	StackEventHandler, .-StackEventHandler
 354              		.section	.text.phaseDetect_interruptHandler,"ax",%progbits
 355              		.align	2
 356              		.global	phaseDetect_interruptHandler
 357              		.code	16
 358              		.thumb_func
 359              		.type	phaseDetect_interruptHandler, %function
 360              	phaseDetect_interruptHandler:
 361              	.LFB38:
 193:main.c        **** 
 194:main.c        **** 
 195:main.c        **** /*******************************************************************************
 196:main.c        **** * Function Name: SendNotification()
 197:main.c        **** ********************************************************************************
 198:main.c        **** * Summary:
 199:main.c        **** * This function creates a notification packet and sends it.
 200:main.c        **** *
 201:main.c        **** * Parameters:
 202:main.c        **** * None
 203:main.c        **** *
 204:main.c        **** * Return:
 205:main.c        **** * None
 206:main.c        **** *
 207:main.c        **** * Theory:
 208:main.c        **** * The function creates a notification packet for the custom characteristic and 
 209:main.c        **** * sends it over BLE. The amount of data sent for the characteristic is equal 
ARM GAS  C:\Users\Austina\AppData\Local\Temp\cclYMHAw.s 			page 11


 210:main.c        **** * to (negotiated MTU size - 3) bytes.
 211:main.c        **** *
 212:main.c        **** * Side Effects:
 213:main.c        **** * None
 214:main.c        **** *
 215:main.c        **** *******************************************************************************/
 216:main.c        **** void SendNotification(void)
 217:main.c        **** {
 218:main.c        ****     /* Create a new notification packet */
 219:main.c        ****     CYBLE_GATTS_HANDLE_VALUE_NTF_T notificationPacket;
 220:main.c        ****     
 221:main.c        ****     /* Update Notification packet with the data.
 222:main.c        ****      * Maximum data which can be sent is equal to (Negotiated MTU - 3) bytes.
 223:main.c        ****      */
 224:main.c        ****     notificationPacket.attrHandle = CYBLE_WIRELESS_RADAR_SENSOR_CUSTOM_CHARACTERISTIC_CHAR_HANDLE;
 225:main.c        ****     notificationPacket.value.val = (uint8 *) & data;;
 226:main.c        ****     notificationPacket.value.len = 1;
 227:main.c        ****     
 228:main.c        ****     /* Report data to BLE component */
 229:main.c        ****     CyBle_GattsNotification(cyBle_connHandle, &notificationPacket);
 230:main.c        **** }
 231:main.c        **** 
 232:main.c        **** void Read_Gpio(void)
 233:main.c        **** {
 234:main.c        ****     uint8 TpinState,PpinState;
 235:main.c        ****         TpinState=Target_Detect_Read();
 236:main.c        ****         if (TpinState==0)
 237:main.c        ****         {
 238:main.c        ****                PpinState = Phase_Detect_Read();
 239:main.c        ****                if (PpinState==0)
 240:main.c        ****                  {
 241:main.c        ****                    UART_UartPutString("\r\nMotion detected and target is departing\r\n");
 242:main.c        ****                    data = 2;
 243:main.c        ****                  }
 244:main.c        ****                 else
 245:main.c        ****                 {
 246:main.c        ****                   UART_UartPutString("\r\nMotion detected and target is approaching\r\n");
 247:main.c        ****                   data = 1;
 248:main.c        ****                 }
 249:main.c        ****         }
 250:main.c        ****         else
 251:main.c        ****         {
 252:main.c        ****           UART_UartPutString("\r\nMotion not detected\r\n"); 
 253:main.c        ****           data = 0;
 254:main.c        ****         }
 255:main.c        **** }    
 256:main.c        **** 
 257:main.c        **** volatile static uint8_t phaseInterruptFlag;
 258:main.c        **** CY_ISR(phaseDetect_interruptHandler)
 259:main.c        **** {
 362              		.loc 1 259 0
 363              		.cfi_startproc
 364              		@ args = 0, pretend = 0, frame = 0
 365              		@ frame_needed = 0, uses_anonymous_args = 0
 366 0000 10B5     		push	{r4, lr}
 367              		.cfi_def_cfa_offset 8
 368              		.cfi_offset 4, -8
ARM GAS  C:\Users\Austina\AppData\Local\Temp\cclYMHAw.s 			page 12


 369              		.cfi_offset 14, -4
 260:main.c        ****    serialDebug("IP\r\n");
 370              		.loc 1 260 0
 371 0002 0448     		ldr	r0, .L31
 372 0004 FFF7FEFF 		bl	UART_UartPutString
 373              	.LVL64:
 261:main.c        ****     phaseInterruptFlag = 1;
 374              		.loc 1 261 0
 375 0008 0122     		movs	r2, #1
 376 000a 034B     		ldr	r3, .L31+4
 377 000c 5A70     		strb	r2, [r3, #1]
 262:main.c        ****     PHASE_DETECT_ClearInterrupt();
 378              		.loc 1 262 0
 379 000e FFF7FEFF 		bl	PHASE_DETECT_ClearInterrupt
 380              	.LVL65:
 263:main.c        **** }
 381              		.loc 1 263 0
 382              		@ sp needed
 383 0012 10BD     		pop	{r4, pc}
 384              	.L32:
 385              		.align	2
 386              	.L31:
 387 0014 98000000 		.word	.LC41
 388 0018 00000000 		.word	.LANCHOR0
 389              		.cfi_endproc
 390              	.LFE38:
 391              		.size	phaseDetect_interruptHandler, .-phaseDetect_interruptHandler
 392              		.section	.text.SendNotification,"ax",%progbits
 393              		.align	2
 394              		.global	SendNotification
 395              		.code	16
 396              		.thumb_func
 397              		.type	SendNotification, %function
 398              	SendNotification:
 399              	.LFB36:
 217:main.c        ****     /* Create a new notification packet */
 400              		.loc 1 217 0
 401              		.cfi_startproc
 402              		@ args = 0, pretend = 0, frame = 16
 403              		@ frame_needed = 0, uses_anonymous_args = 0
 404 0000 00B5     		push	{lr}
 405              		.cfi_def_cfa_offset 4
 406              		.cfi_offset 14, -4
 407 0002 85B0     		sub	sp, sp, #20
 408              		.cfi_def_cfa_offset 24
 224:main.c        ****     notificationPacket.value.val = (uint8 *) & data;;
 409              		.loc 1 224 0
 410 0004 01A9     		add	r1, sp, #4
 411 0006 1223     		movs	r3, #18
 412 0008 0B81     		strh	r3, [r1, #8]
 225:main.c        ****     notificationPacket.value.len = 1;
 413              		.loc 1 225 0
 414 000a 064B     		ldr	r3, .L34
 415 000c 0193     		str	r3, [sp, #4]
 226:main.c        ****     
 416              		.loc 1 226 0
 417 000e 0123     		movs	r3, #1
ARM GAS  C:\Users\Austina\AppData\Local\Temp\cclYMHAw.s 			page 13


 418 0010 8B80     		strh	r3, [r1, #4]
 229:main.c        **** }
 419              		.loc 1 229 0
 420 0012 054A     		ldr	r2, .L34+4
 421 0014 1378     		ldrb	r3, [r2]
 422 0016 5078     		ldrb	r0, [r2, #1]
 423 0018 0002     		lsls	r0, r0, #8
 424 001a 1843     		orrs	r0, r3
 425 001c FFF7FEFF 		bl	CyBle_GattsNotification
 426              	.LVL66:
 230:main.c        **** 
 427              		.loc 1 230 0
 428 0020 05B0     		add	sp, sp, #20
 429              		@ sp needed
 430 0022 00BD     		pop	{pc}
 431              	.L35:
 432              		.align	2
 433              	.L34:
 434 0024 00000000 		.word	data
 435 0028 00000000 		.word	cyBle_connHandle
 436              		.cfi_endproc
 437              	.LFE36:
 438              		.size	SendNotification, .-SendNotification
 439              		.section	.text.Read_Gpio,"ax",%progbits
 440              		.align	2
 441              		.global	Read_Gpio
 442              		.code	16
 443              		.thumb_func
 444              		.type	Read_Gpio, %function
 445              	Read_Gpio:
 446              	.LFB37:
 233:main.c        ****     uint8 TpinState,PpinState;
 447              		.loc 1 233 0
 448              		.cfi_startproc
 449              		@ args = 0, pretend = 0, frame = 0
 450              		@ frame_needed = 0, uses_anonymous_args = 0
 451 0000 10B5     		push	{r4, lr}
 452              		.cfi_def_cfa_offset 8
 453              		.cfi_offset 4, -8
 454              		.cfi_offset 14, -4
 235:main.c        ****         if (TpinState==0)
 455              		.loc 1 235 0
 456 0002 FFF7FEFF 		bl	Target_Detect_Read
 457              	.LVL67:
 458 0006 C0B2     		uxtb	r0, r0
 459              	.LVL68:
 236:main.c        ****         {
 460              		.loc 1 236 0
 461 0008 0028     		cmp	r0, #0
 462 000a 12D1     		bne	.L37
 463              	.LBB2:
 238:main.c        ****                if (PpinState==0)
 464              		.loc 1 238 0
 465 000c FFF7FEFF 		bl	Phase_Detect_Read
 466              	.LVL69:
 467 0010 C0B2     		uxtb	r0, r0
 468              	.LVL70:
ARM GAS  C:\Users\Austina\AppData\Local\Temp\cclYMHAw.s 			page 14


 239:main.c        ****                  {
 469              		.loc 1 239 0
 470 0012 0028     		cmp	r0, #0
 471 0014 06D1     		bne	.L38
 241:main.c        ****                    data = 2;
 472              		.loc 1 241 0
 473 0016 0A48     		ldr	r0, .L40
 474              	.LVL71:
 475 0018 FFF7FEFF 		bl	UART_UartPutString
 476              	.LVL72:
 242:main.c        ****                  }
 477              		.loc 1 242 0
 478 001c 0222     		movs	r2, #2
 479 001e 094B     		ldr	r3, .L40+4
 480 0020 1A70     		strb	r2, [r3]
 481 0022 0CE0     		b	.L36
 482              	.LVL73:
 483              	.L38:
 246:main.c        ****                   data = 1;
 484              		.loc 1 246 0
 485 0024 0848     		ldr	r0, .L40+8
 486              	.LVL74:
 487 0026 FFF7FEFF 		bl	UART_UartPutString
 488              	.LVL75:
 247:main.c        ****                 }
 489              		.loc 1 247 0
 490 002a 0122     		movs	r2, #1
 491 002c 054B     		ldr	r3, .L40+4
 492 002e 1A70     		strb	r2, [r3]
 493 0030 05E0     		b	.L36
 494              	.LVL76:
 495              	.L37:
 496              	.LBE2:
 252:main.c        ****           data = 0;
 497              		.loc 1 252 0
 498 0032 0648     		ldr	r0, .L40+12
 499              	.LVL77:
 500 0034 FFF7FEFF 		bl	UART_UartPutString
 501              	.LVL78:
 253:main.c        ****         }
 502              		.loc 1 253 0
 503 0038 0022     		movs	r2, #0
 504 003a 024B     		ldr	r3, .L40+4
 505 003c 1A70     		strb	r2, [r3]
 506              	.L36:
 255:main.c        **** 
 507              		.loc 1 255 0
 508              		@ sp needed
 509 003e 10BD     		pop	{r4, pc}
 510              	.L41:
 511              		.align	2
 512              	.L40:
 513 0040 A0000000 		.word	.LC46
 514 0044 00000000 		.word	data
 515 0048 CC000000 		.word	.LC49
 516 004c FC000000 		.word	.LC51
 517              		.cfi_endproc
ARM GAS  C:\Users\Austina\AppData\Local\Temp\cclYMHAw.s 			page 15


 518              	.LFE37:
 519              		.size	Read_Gpio, .-Read_Gpio
 520              		.section	.text.main,"ax",%progbits
 521              		.align	2
 522              		.global	main
 523              		.code	16
 524              		.thumb_func
 525              		.type	main, %function
 526              	main:
 527              	.LFB39:
 264:main.c        **** /*******************************************************************************
 265:main.c        **** * Function Name: main()
 266:main.c        **** ********************************************************************************
 267:main.c        **** * Summary:
 268:main.c        **** * The top-level application function for the project.
 269:main.c        **** *
 270:main.c        **** * Parameters:
 271:main.c        **** * None
 272:main.c        **** *
 273:main.c        **** * Return:
 274:main.c        **** * None
 275:main.c        **** *
 276:main.c        **** * Theory:
 277:main.c        **** * This is the main function for the application. It does the following -
 278:main.c        **** * 1. Initializes the BLE component
 279:main.c        **** * 2. Initializes a buffer from which data is sent out over BLE
 280:main.c        **** * 3. Sends characteristic notification packets over BLE
 281:main.c        **** *
 282:main.c        **** * Side Effects:
 283:main.c        **** * None
 284:main.c        **** *
 285:main.c        **** *******************************************************************************/
 286:main.c        **** int main()
 287:main.c        **** {
 528              		.loc 1 287 0
 529              		.cfi_startproc
 530              		@ args = 0, pretend = 0, frame = 0
 531              		@ frame_needed = 0, uses_anonymous_args = 0
 532 0000 10B5     		push	{r4, lr}
 533              		.cfi_def_cfa_offset 8
 534              		.cfi_offset 4, -8
 535              		.cfi_offset 14, -4
 288:main.c        **** 
 289:main.c        **** 
 290:main.c        ****     /* Enable global interrupts for BLE */
 291:main.c        ****     CyGlobalIntEnable; 
 536              		.loc 1 291 0
 537              		.syntax divided
 538              	@ 291 "main.c" 1
 539 0002 62B6     		CPSIE   i
 540              	@ 0 "" 2
 292:main.c        ****     
 293:main.c        ****     /* Initialize components */
 294:main.c        ****     CyBle_Start(StackEventHandler);
 541              		.loc 1 294 0
 542              		.thumb
 543              		.syntax unified
ARM GAS  C:\Users\Austina\AppData\Local\Temp\cclYMHAw.s 			page 16


 544 0004 3848     		ldr	r0, .L51
 545 0006 FFF7FEFF 		bl	CyBle_Start
 546              	.LVL79:
 295:main.c        ****     UART_Start();
 547              		.loc 1 295 0
 548 000a FFF7FEFF 		bl	UART_Start
 549              	.LVL80:
 296:main.c        ****     UART_UartPutString("\x1b[2J\x1b[;H \r");
 550              		.loc 1 296 0
 551 000e 3748     		ldr	r0, .L51+4
 552 0010 FFF7FEFF 		bl	UART_UartPutString
 553              	.LVL81:
 297:main.c        ****     serialDebug("\r\n GPIO Pin Testing \r\n");
 554              		.loc 1 297 0
 555 0014 3648     		ldr	r0, .L51+8
 556 0016 FFF7FEFF 		bl	UART_UartPutString
 557              	.LVL82:
 298:main.c        ****     
 299:main.c        ****     DSLEEP_LED_GREEN_OFF();
 558              		.loc 1 299 0
 559 001a 0120     		movs	r0, #1
 560 001c FFF7FEFF 		bl	LED_DSLEEP_GREEN_Write
 561              	.LVL83:
 300:main.c        ****     SLEEP_LED_BLUE_OFF();
 562              		.loc 1 300 0
 563 0020 0120     		movs	r0, #1
 564 0022 FFF7FEFF 		bl	LED_SLEEP_BLUE_Write
 565              	.LVL84:
 301:main.c        ****     
 302:main.c        ****     PHASE_DETECT_INT_StartEx(phaseDetect_interruptHandler);
 566              		.loc 1 302 0
 567 0026 3348     		ldr	r0, .L51+12
 568 0028 FFF7FEFF 		bl	PHASE_DETECT_INT_StartEx
 569              	.LVL85:
 303:main.c        ****     /* Clear screen and put a welcome message */
 304:main.c        ****     UART_UartPutString("\r\nBLE Radar Puck\r\n");
 570              		.loc 1 304 0
 571 002c 3248     		ldr	r0, .L51+16
 572 002e FFF7FEFF 		bl	UART_UartPutString
 573              	.LVL86:
 574              	.L50:
 575              	.LBB3:
 305:main.c        ****     
 306:main.c        ****     
 307:main.c        ****     
 308:main.c        ****     for(;;)
 309:main.c        ****     {
 310:main.c        ****         
 311:main.c        ****         static uint8 toggleTimeout = 0;
 312:main.c        ****         CYBLE_BLESS_STATE_T blessState;
 313:main.c        ****         uint8 intrStatus;
 314:main.c        **** 
 315:main.c        ****         /* Single API call to service all the BLE stack events. Must be
 316:main.c        ****          * called at least once in a BLE connection interval */
 317:main.c        ****         CyBle_ProcessEvents();
 576              		.loc 1 317 0
 577 0032 FFF7FEFF 		bl	CyBle_ProcessEvents
ARM GAS  C:\Users\Austina\AppData\Local\Temp\cclYMHAw.s 			page 17


 578              	.LVL87:
 318:main.c        ****         
 319:main.c        ****         if(phaseInterruptFlag){
 579              		.loc 1 319 0
 580 0036 314B     		ldr	r3, .L51+20
 581 0038 5B78     		ldrb	r3, [r3, #1]
 582 003a 002B     		cmp	r3, #0
 583 003c 31D0     		beq	.L43
 320:main.c        ****             phaseInterruptFlag = 0;
 584              		.loc 1 320 0
 585 003e 0022     		movs	r2, #0
 586 0040 2E4B     		ldr	r3, .L51+20
 587 0042 5A70     		strb	r2, [r3, #1]
 321:main.c        ****             if(!PHASE_DETECT_Read())
 588              		.loc 1 321 0
 589 0044 FFF7FEFF 		bl	PHASE_DETECT_Read
 590              	.LVL88:
 591 0048 0028     		cmp	r0, #0
 592 004a 15D1     		bne	.L44
 322:main.c        ****             {
 323:main.c        ****                 if(TARGET_DETECT_Read())
 593              		.loc 1 323 0
 594 004c FFF7FEFF 		bl	TARGET_DETECT_Read
 595              	.LVL89:
 596 0050 0028     		cmp	r0, #0
 597 0052 08D0     		beq	.L45
 324:main.c        ****                 {
 325:main.c        ****                     data = 0;
 598              		.loc 1 325 0
 599 0054 0022     		movs	r2, #0
 600 0056 2A4B     		ldr	r3, .L51+24
 601 0058 1A70     		strb	r2, [r3]
 326:main.c        ****                     //Target is invalid
 327:main.c        ****                     serialMain("III \r\n");
 602              		.loc 1 327 0
 603 005a 2A48     		ldr	r0, .L51+28
 604 005c FFF7FEFF 		bl	UART_UartPutString
 605              	.LVL90:
 328:main.c        ****                     SendNotification();
 606              		.loc 1 328 0
 607 0060 FFF7FEFF 		bl	SendNotification
 608              	.LVL91:
 609 0064 1DE0     		b	.L43
 610              	.L45:
 329:main.c        ****                 }
 330:main.c        ****                 else
 331:main.c        ****                 { 
 332:main.c        ****                     data = 1;
 611              		.loc 1 332 0
 612 0066 0122     		movs	r2, #1
 613 0068 254B     		ldr	r3, .L51+24
 614 006a 1A70     		strb	r2, [r3]
 333:main.c        ****                     serialMain("APPROACHING \r\n");
 615              		.loc 1 333 0
 616 006c 2648     		ldr	r0, .L51+32
 617 006e FFF7FEFF 		bl	UART_UartPutString
 618              	.LVL92:
ARM GAS  C:\Users\Austina\AppData\Local\Temp\cclYMHAw.s 			page 18


 334:main.c        ****                     SendNotification();
 619              		.loc 1 334 0
 620 0072 FFF7FEFF 		bl	SendNotification
 621              	.LVL93:
 622 0076 14E0     		b	.L43
 623              	.L44:
 335:main.c        ****                 }
 336:main.c        ****             }
 337:main.c        ****             else
 338:main.c        ****             {
 339:main.c        ****                 if(TARGET_DETECT_Read())
 624              		.loc 1 339 0
 625 0078 FFF7FEFF 		bl	TARGET_DETECT_Read
 626              	.LVL94:
 627 007c 0028     		cmp	r0, #0
 628 007e 08D0     		beq	.L46
 340:main.c        ****                 {
 341:main.c        ****                     data = 0;
 629              		.loc 1 341 0
 630 0080 0022     		movs	r2, #0
 631 0082 1F4B     		ldr	r3, .L51+24
 632 0084 1A70     		strb	r2, [r3]
 342:main.c        ****                     //Target is invalid
 343:main.c        ****                     serialMain("III \r\n");
 633              		.loc 1 343 0
 634 0086 1F48     		ldr	r0, .L51+28
 635 0088 FFF7FEFF 		bl	UART_UartPutString
 636              	.LVL95:
 344:main.c        ****                     SendNotification();
 637              		.loc 1 344 0
 638 008c FFF7FEFF 		bl	SendNotification
 639              	.LVL96:
 640 0090 07E0     		b	.L43
 641              	.L46:
 345:main.c        ****                 }
 346:main.c        ****                 else
 347:main.c        ****                 { 
 348:main.c        ****                     data = 2;
 642              		.loc 1 348 0
 643 0092 0222     		movs	r2, #2
 644 0094 1A4B     		ldr	r3, .L51+24
 645 0096 1A70     		strb	r2, [r3]
 349:main.c        ****                     serialMain("DEPARTING \r\n");
 646              		.loc 1 349 0
 647 0098 1C48     		ldr	r0, .L51+36
 648 009a FFF7FEFF 		bl	UART_UartPutString
 649              	.LVL97:
 350:main.c        ****                     SendNotification();
 650              		.loc 1 350 0
 651 009e FFF7FEFF 		bl	SendNotification
 652              	.LVL98:
 653              	.L43:
 351:main.c        ****                 }
 352:main.c        ****             }
 353:main.c        ****         }
 354:main.c        ****         /* Configure BLESS in Deep-Sleep mode */
 355:main.c        ****         CyBle_EnterLPM(CYBLE_BLESS_DEEPSLEEP);
ARM GAS  C:\Users\Austina\AppData\Local\Temp\cclYMHAw.s 			page 19


 654              		.loc 1 355 0
 655 00a2 0320     		movs	r0, #3
 656 00a4 FFF7FEFF 		bl	CyBle_EnterLPM
 657              	.LVL99:
 356:main.c        ****         
 357:main.c        ****         /* Prevent interrupts while entering system low power modes */
 358:main.c        ****         intrStatus = CyEnterCriticalSection();
 658              		.loc 1 358 0
 659 00a8 FFF7FEFF 		bl	CyEnterCriticalSection
 660              	.LVL100:
 661 00ac 0400     		movs	r4, r0
 662              	.LVL101:
 359:main.c        ****         
 360:main.c        ****         /* Get the current state of BLESS block */
 361:main.c        ****         blessState = CyBle_GetBleSsState();
 663              		.loc 1 361 0
 664 00ae FFF7FEFF 		bl	CyBle_GetBleSsState
 665              	.LVL102:
 362:main.c        ****         
 363:main.c        ****         /* If BLESS is in Deep-Sleep mode or the XTAL oscillator is turning on, 
 364:main.c        ****          * then PSoC 4 BLE can enter Deep-Sleep mode (1.3uA current consumption) */
 365:main.c        ****         if(blessState == CYBLE_BLESS_STATE_ECO_ON || 
 666              		.loc 1 365 0
 667 00b2 0428     		cmp	r0, #4
 668 00b4 01D0     		beq	.L47
 669              		.loc 1 365 0 is_stmt 0 discriminator 1
 670 00b6 0628     		cmp	r0, #6
 671 00b8 08D1     		bne	.L48
 672              	.L47:
 366:main.c        ****             blessState == CYBLE_BLESS_STATE_DEEPSLEEP)
 367:main.c        ****         {
 368:main.c        ****             //If the green lED is prominantly glowing, then 
 369:main.c        ****             //it means device is in deep sleep most of the time
 370:main.c        ****             DSLEEP_LED_GREEN_ON();
 673              		.loc 1 370 0 is_stmt 1
 674 00ba 0020     		movs	r0, #0
 675              	.LVL103:
 676 00bc FFF7FEFF 		bl	LED_DSLEEP_GREEN_Write
 677              	.LVL104:
 371:main.c        ****             SLEEP_LED_BLUE_OFF();
 678              		.loc 1 371 0
 679 00c0 0120     		movs	r0, #1
 680 00c2 FFF7FEFF 		bl	LED_SLEEP_BLUE_Write
 681              	.LVL105:
 372:main.c        ****             CySysPmDeepSleep();
 682              		.loc 1 372 0
 683 00c6 FFF7FEFF 		bl	CySysPmDeepSleep
 684              	.LVL106:
 685 00ca 09E0     		b	.L49
 686              	.LVL107:
 687              	.L48:
 373:main.c        ****         }
 374:main.c        ****         else if(blessState != CYBLE_BLESS_STATE_EVENT_CLOSE)
 688              		.loc 1 374 0
 689 00cc 0228     		cmp	r0, #2
 690 00ce 07D0     		beq	.L49
 375:main.c        ****         {
ARM GAS  C:\Users\Austina\AppData\Local\Temp\cclYMHAw.s 			page 20


 376:main.c        ****             //If the Blue lED is prominantly glowing, then 
 377:main.c        ****             //it means device is in sleep mode most of the time
 378:main.c        ****             DSLEEP_LED_GREEN_OFF();
 691              		.loc 1 378 0
 692 00d0 0120     		movs	r0, #1
 693              	.LVL108:
 694 00d2 FFF7FEFF 		bl	LED_DSLEEP_GREEN_Write
 695              	.LVL109:
 379:main.c        ****             SLEEP_LED_BLUE_ON();;
 696              		.loc 1 379 0
 697 00d6 0020     		movs	r0, #0
 698 00d8 FFF7FEFF 		bl	LED_SLEEP_BLUE_Write
 699              	.LVL110:
 380:main.c        ****             //serialDebug("Going into sleep\r\n");
 381:main.c        ****             /* If BLESS is active, then configure PSoC 4 BLE system in 
 382:main.c        ****              * Sleep mode (~1.6mA current consumption) */
 383:main.c        ****             CySysPmSleep();
 700              		.loc 1 383 0
 701 00dc FFF7FEFF 		bl	CySysPmSleep
 702              	.LVL111:
 703              	.L49:
 384:main.c        ****             //serialDebug("Exiting  sleep\r\n");
 385:main.c        ****         }
 386:main.c        ****         else
 387:main.c        ****         {
 388:main.c        ****             /* Keep trying to enter either Sleep or Deep-Sleep mode */    
 389:main.c        ****         }
 390:main.c        ****         CyExitCriticalSection(intrStatus);
 704              		.loc 1 390 0
 705 00e0 2000     		movs	r0, r4
 706 00e2 FFF7FEFF 		bl	CyExitCriticalSection
 707              	.LVL112:
 708              	.LBE3:
 391:main.c        ****         
 392:main.c        ****        
 393:main.c        ****        
 394:main.c        ****     }
 709              		.loc 1 394 0
 710 00e6 A4E7     		b	.L50
 711              	.L52:
 712              		.align	2
 713              	.L51:
 714 00e8 00000000 		.word	StackEventHandler
 715 00ec 14010000 		.word	.LC54
 716 00f0 20010000 		.word	.LC56
 717 00f4 00000000 		.word	phaseDetect_interruptHandler
 718 00f8 38010000 		.word	.LC59
 719 00fc 00000000 		.word	.LANCHOR0
 720 0100 00000000 		.word	data
 721 0104 4C010000 		.word	.LC63
 722 0108 54010000 		.word	.LC65
 723 010c 64010000 		.word	.LC67
 724              		.cfi_endproc
 725              	.LFE39:
 726              		.size	main, .-main
 727              		.global	Timerflag
 728              		.comm	data,1,1
ARM GAS  C:\Users\Austina\AppData\Local\Temp\cclYMHAw.s 			page 21


 729              		.global	charNotificationEnabled
 730              		.section	.rodata.str1.4,"aMS",%progbits,1
 731              		.align	2
 732              	.LC0:
 733 0000 3135200D 		.ascii	"15 \015\012\000"
 733      0A00
 734 0006 0000     		.space	2
 735              	.LC3:
 736 0008 3136200D 		.ascii	"16 \015\012\000"
 736      0A00
 737 000e 0000     		.space	2
 738              	.LC5:
 739 0010 3137200D 		.ascii	"17 \015\012\000"
 739      0A00
 740 0016 0000     		.space	2
 741              	.LC8:
 742 0018 3138200D 		.ascii	"18 \015\012\000"
 742      0A00
 743 001e 0000     		.space	2
 744              	.LC10:
 745 0020 3139200D 		.ascii	"19 \015\012\000"
 745      0A00
 746 0026 0000     		.space	2
 747              	.LC13:
 748 0028 31200D0A 		.ascii	"1 \015\012\000"
 748      00
 749 002d 000000   		.space	3
 750              	.LC15:
 751 0030 32200D0A 		.ascii	"2 \015\012\000"
 751      00
 752 0035 000000   		.space	3
 753              	.LC17:
 754 0038 33200D0A 		.ascii	"3 \015\012\000"
 754      00
 755 003d 000000   		.space	3
 756              	.LC19:
 757 0040 34200D0A 		.ascii	"4 \015\012\000"
 757      00
 758 0045 000000   		.space	3
 759              	.LC21:
 760 0048 35200D0A 		.ascii	"5 \015\012\000"
 760      00
 761 004d 000000   		.space	3
 762              	.LC23:
 763 0050 36200D0A 		.ascii	"6 \015\012\000"
 763      00
 764 0055 000000   		.space	3
 765              	.LC25:
 766 0058 37200D0A 		.ascii	"7 \015\012\000"
 766      00
 767 005d 000000   		.space	3
 768              	.LC27:
 769 0060 38200D0A 		.ascii	"8 \015\012\000"
 769      00
 770 0065 000000   		.space	3
 771              	.LC29:
 772 0068 39200D0A 		.ascii	"9 \015\012\000"
ARM GAS  C:\Users\Austina\AppData\Local\Temp\cclYMHAw.s 			page 22


 772      00
 773 006d 000000   		.space	3
 774              	.LC31:
 775 0070 3130200D 		.ascii	"10 \015\012\000"
 775      0A00
 776 0076 0000     		.space	2
 777              	.LC33:
 778 0078 3131200D 		.ascii	"11 \015\012\000"
 778      0A00
 779 007e 0000     		.space	2
 780              	.LC35:
 781 0080 3132200D 		.ascii	"12 \015\012\000"
 781      0A00
 782 0086 0000     		.space	2
 783              	.LC37:
 784 0088 3133200D 		.ascii	"13 \015\012\000"
 784      0A00
 785 008e 0000     		.space	2
 786              	.LC39:
 787 0090 3134200D 		.ascii	"14 \015\012\000"
 787      0A00
 788 0096 0000     		.space	2
 789              	.LC41:
 790 0098 49500D0A 		.ascii	"IP\015\012\000"
 790      00
 791 009d 000000   		.space	3
 792              	.LC46:
 793 00a0 0D0A4D6F 		.ascii	"\015\012Motion detected and target is departing\015"
 793      74696F6E 
 793      20646574 
 793      65637465 
 793      6420616E 
 794 00ca 0A00     		.ascii	"\012\000"
 795              	.LC49:
 796 00cc 0D0A4D6F 		.ascii	"\015\012Motion detected and target is approaching\015"
 796      74696F6E 
 796      20646574 
 796      65637465 
 796      6420616E 
 797 00f8 0A00     		.ascii	"\012\000"
 798 00fa 0000     		.space	2
 799              	.LC51:
 800 00fc 0D0A4D6F 		.ascii	"\015\012Motion not detected\015\012\000"
 800      74696F6E 
 800      206E6F74 
 800      20646574 
 800      65637465 
 801              	.LC54:
 802 0114 1B5B324A 		.ascii	"\033[2J\033[;H \015\000"
 802      1B5B3B48 
 802      200D00
 803 011f 00       		.space	1
 804              	.LC56:
 805 0120 0D0A2047 		.ascii	"\015\012 GPIO Pin Testing \015\012\000"
 805      50494F20 
 805      50696E20 
 805      54657374 
ARM GAS  C:\Users\Austina\AppData\Local\Temp\cclYMHAw.s 			page 23


 805      696E6720 
 806 0137 00       		.space	1
 807              	.LC59:
 808 0138 0D0A424C 		.ascii	"\015\012BLE Radar Puck\015\012\000"
 808      45205261 
 808      64617220 
 808      5075636B 
 808      0D0A00
 809 014b 00       		.space	1
 810              	.LC63:
 811 014c 49494920 		.ascii	"III \015\012\000"
 811      0D0A00
 812 0153 00       		.space	1
 813              	.LC65:
 814 0154 41505052 		.ascii	"APPROACHING \015\012\000"
 814      4F414348 
 814      494E4720 
 814      0D0A00
 815 0163 00       		.space	1
 816              	.LC67:
 817 0164 44455041 		.ascii	"DEPARTING \015\012\000"
 817      5254494E 
 817      47200D0A 
 817      00
 818              		.bss
 819              		.set	.LANCHOR0,. + 0
 820              		.type	charNotificationEnabled, %object
 821              		.size	charNotificationEnabled, 1
 822              	charNotificationEnabled:
 823 0000 00       		.space	1
 824              		.type	phaseInterruptFlag, %object
 825              		.size	phaseInterruptFlag, 1
 826              	phaseInterruptFlag:
 827 0001 00       		.space	1
 828              		.type	Timerflag, %object
 829              		.size	Timerflag, 1
 830              	Timerflag:
 831 0002 00       		.space	1
 832              		.text
 833              	.Letext0:
 834              		.file 2 "c:\\program files (x86)\\cypress\\psoc creator\\4.4\\psoc creator\\import\\gnu\\arm\\5.4.
 835              		.file 3 "c:\\program files (x86)\\cypress\\psoc creator\\4.4\\psoc creator\\import\\gnu\\arm\\5.4.
 836              		.file 4 "Generated_Source\\PSoC4/cytypes.h"
 837              		.file 5 "Generated_Source\\PSoC4/BLE_Stack.h"
 838              		.file 6 "Generated_Source\\PSoC4/BLE_StackGatt.h"
 839              		.file 7 "Generated_Source\\PSoC4/BLE_StackGattServer.h"
 840              		.file 8 "Generated_Source\\PSoC4/BLE_eventHandler.h"
 841              		.file 9 "Generated_Source\\PSoC4/UART_SPI_UART.h"
 842              		.file 10 "Generated_Source\\PSoC4/BLE.h"
 843              		.file 11 "Generated_Source\\PSoC4/BLE_StackGattDb.h"
 844              		.file 12 "Generated_Source\\PSoC4/PHASE_DETECT.h"
 845              		.file 13 "Generated_Source\\PSoC4/TARGET_DETECT.h"
 846              		.file 14 "Generated_Source\\PSoC4/CyLib.h"
 847              		.file 15 "Generated_Source\\PSoC4/LED_DSLEEP_GREEN.h"
 848              		.file 16 "Generated_Source\\PSoC4/LED_SLEEP_BLUE.h"
 849              		.file 17 "Generated_Source\\PSoC4/cyPm.h"
 850              		.file 18 "Generated_Source\\PSoC4/UART.h"
ARM GAS  C:\Users\Austina\AppData\Local\Temp\cclYMHAw.s 			page 24


 851              		.file 19 "Generated_Source\\PSoC4/PHASE_DETECT_INT.h"